target datalayout = "e-m:e-p270:32:32-p271:32:32-p272:64:64-i64:64-i128:128-f80:128-n8:16:32:64-S128"
target triple = "x86_64-pc-linux-gnu"

; Function Attrs: mustprogress nounwind uwtable
define void @_ZN14debug_module_t7write32EPhjj(ptr noundef nonnull align 8 dereferenceable(1372) %0, ptr noundef %1, i32 noundef %2, i32 noundef %3) #7 align 2 {
  %5 = alloca ptr, align 8
  %6 = alloca ptr, align 8
  %7 = alloca i32, align 4
  %8 = alloca i32, align 4
  %9 = alloca ptr, align 8
  store ptr %0, ptr %5, align 8, !tbaa !3
  store ptr %1, ptr %6, align 8, !tbaa !76
  store i32 %2, ptr %7, align 4, !tbaa !15
  store i32 %3, ptr %8, align 4, !tbaa !15
  call void @llvm.lifetime.start.p0(i64 8, ptr %9) #3
  %10 = load ptr, ptr %6, align 8, !tbaa !76
  %11 = load i32, ptr %7, align 4, !tbaa !15
  %12 = mul i32 %11, 4
  %13 = zext i32 %12 to i64
  %14 = getelementptr inbounds nuw i8, ptr %10, i64 %13
  store ptr %14, ptr %9, align 8, !tbaa !76
  %15 = load i32, ptr %8, align 4, !tbaa !15
  %16 = and i32 %15, 255
  %17 = trunc i32 %16 to i8
  %18 = load ptr, ptr %9, align 8, !tbaa !76
  %19 = getelementptr inbounds i8, ptr %18, i64 0
  store i8 %17, ptr %19, align 1, !tbaa !58
  %20 = load i32, ptr %8, align 4, !tbaa !15
  %21 = lshr i32 %20, 8
  %22 = and i32 %21, 255
  %23 = trunc i32 %22 to i8
  %24 = load ptr, ptr %9, align 8, !tbaa !76
  %25 = getelementptr inbounds i8, ptr %24, i64 1
  store i8 %23, ptr %25, align 1, !tbaa !58
  %26 = load i32, ptr %8, align 4, !tbaa !15
  %27 = lshr i32 %26, 16
  %28 = and i32 %27, 255
  %29 = trunc i32 %28 to i8
  %30 = load ptr, ptr %9, align 8, !tbaa !76
  %31 = getelementptr inbounds i8, ptr %30, i64 2
  store i8 %29, ptr %31, align 1, !tbaa !58
  %32 = load i32, ptr %8, align 4, !tbaa !15
  %33 = lshr i32 %32, 24
  %34 = and i32 %33, 255
  %35 = trunc i32 %34 to i8
  %36 = load ptr, ptr %9, align 8, !tbaa !76
  %37 = getelementptr inbounds i8, ptr %36, i64 3
  store i8 %35, ptr %37, align 1, !tbaa !58
  call void @llvm.lifetime.end.p0(i64 8, ptr %9) #3
  ret void
}