; Function Attrs: mustprogress nofree norecurse nosync nounwind willreturn memory(argmem: write) uwtable
define void @_ZN14debug_module_t7write32EPhjj(ptr noundef nonnull readnone align 8 captures(none) dereferenceable(1372) %0, ptr noundef writeonly captures(none) %1, i32 noundef %2, i32 noundef %3) local_unnamed_addr #10 align 2 {
  %5 = shl i32 %2, 2
  %6 = zext i32 %5 to i64
  %7 = getelementptr inbounds nuw i8, ptr %1, i64 %6
  %8 = trunc i32 %3 to i8
  store i8 %8, ptr %7, align 1, !tbaa !67
  %9 = lshr i32 %3, 8
  %10 = trunc i32 %9 to i8
  %11 = getelementptr inbounds nuw i8, ptr %7, i64 1
  store i8 %10, ptr %11, align 1, !tbaa !67
  %12 = lshr i32 %3, 16
  %13 = trunc i32 %12 to i8
  %14 = getelementptr inbounds nuw i8, ptr %7, i64 2
  store i8 %13, ptr %14, align 1, !tbaa !67
  %15 = lshr i32 %3, 24
  %16 = trunc nuw i32 %15 to i8
  %17 = getelementptr inbounds nuw i8, ptr %7, i64 3
  store i8 %16, ptr %17, align 1, !tbaa !67
  ret void
}